; Function Attrs: mustprogress nofree nounwind uwtable
define hidden noundef zeroext i1 @_ZN11OpenImageIO6v3_1_014SoftimageInput5closeEv(ptr noundef nonnull align 8 captures(none) dereferenceable(376) initializes((328, 336)) %0) unnamed_addr #7 align 2 personality ptr @__gxx_personality_v0 {
  %2 = getelementptr inbounds nuw i8, ptr %0, i64 184
  %3 = load ptr, ptr %2, align 8, !tbaa !11
  %.not = icmp eq ptr %3, null
  br i1 %.not, label %6, label %4

4:                                                ; preds = %1
  %5 = tail call i32 @fclose(ptr noundef nonnull %3)
  br label %6

6:                                                ; preds = %4, %1
  store ptr null, ptr %2, align 8, !tbaa !11
  %7 = getelementptr inbounds nuw i8, ptr %0, i64 320
  %8 = getelementptr inbounds nuw i8, ptr %0, i64 328
  store i64 0, ptr %8, align 8, !tbaa !59
  %9 = load ptr, ptr %7, align 8, !tbaa !60
  store i8 0, ptr %9, align 1, !tbaa !61
  %10 = getelementptr inbounds nuw i8, ptr %0, i64 296
  %11 = load ptr, ptr %10, align 8, !tbaa !62
  %12 = getelementptr inbounds nuw i8, ptr %0, i64 304
  %13 = load ptr, ptr %12, align 8, !tbaa !63
  %.not.i.i.i = icmp eq ptr %13, %11
  br i1 %.not.i.i.i, label %_ZNSt6vectorIN11OpenImageIO6v3_1_013softimage_pvt13ChannelPacketESaIS3_EE5clearEv.exit.i, label %14

14:                                               ; preds = %6
  store ptr %11, ptr %12, align 8, !tbaa !63
  br label %_ZNSt6vectorIN11OpenImageIO6v3_1_013softimage_pvt13ChannelPacketESaIS3_EE5clearEv.exit.i

_ZNSt6vectorIN11OpenImageIO6v3_1_013softimage_pvt13ChannelPacketESaIS3_EE5clearEv.exit.i: ; preds = %14, %6
  %15 = getelementptr inbounds nuw i8, ptr %0, i64 352
  %16 = load ptr, ptr %15, align 8, !tbaa !64
  %17 = getelementptr inbounds nuw i8, ptr %0, i64 360
  %18 = load ptr, ptr %17, align 8, !tbaa !65
  %.not.i.i1.i = icmp eq ptr %18, %16
  br i1 %.not.i.i1.i, label %_ZN11OpenImageIO6v3_1_014SoftimageInput4initEv.exit, label %19

19:                                               ; preds = %_ZNSt6vectorIN11OpenImageIO6v3_1_013softimage_pvt13ChannelPacketESaIS3_EE5clearEv.exit.i
  store ptr %16, ptr %17, align 8, !tbaa !65
  br label %_ZN11OpenImageIO6v3_1_014SoftimageInput4initEv.exit

_ZN11OpenImageIO6v3_1_014SoftimageInput4initEv.exit: ; preds = %_ZNSt6vectorIN11OpenImageIO6v3_1_013softimage_pvt13ChannelPacketESaIS3_EE5clearEv.exit.i, %19
  ret i1 true
}